; Function Attrs: mustprogress nounwind uwtable
define internal void @_ZN3tbb6detail2d218for_each_root_taskIN32pxrInternal_v0_24__pxrReserved__22UsdPrimSubtreeIteratorEZZNS3_12_GLOBAL__N_137_TargetingPropertyDependencyCollector4_RunERKNS3_8TfRefPtrINS3_8UsdStageEEEENKUlvE_clEvEUlRKNS3_7UsdPrimEE_SD_St20forward_iterator_tagED2Ev(ptr noundef nonnull align 64 captures(none) dereferenceable(169) initializes((0, 8)) %0) unnamed_addr #3 align 2 personality ptr @__gxx_personality_v0 {
  store ptr getelementptr inbounds nuw inrange(-16, 32) (i8, ptr @_ZTVN3tbb6detail2d223for_each_root_task_baseIN32pxrInternal_v0_24__pxrReserved__22UsdPrimSubtreeIteratorEZZNS3_12_GLOBAL__N_137_TargetingPropertyDependencyCollector4_RunERKNS3_8TfRefPtrINS3_8UsdStageEEEENKUlvE_clEvEUlRKNS3_7UsdPrimEE_SD_EE, i64 16), ptr %0, align 64
  %2 = getelementptr inbounds nuw i8, ptr %0, i64 112
  %3 = load i32, ptr %2, align 16
  %.not.i.i.i.i = icmp eq i32 %3, 0
  br i1 %.not.i.i.i.i, label %_ZN32pxrInternal_v0_24__pxrReserved__22UsdPrimSubtreeIteratorD2Ev.exit.i, label %4

4:                                                ; preds = %1
  %5 = and i32 %3, 255
  %6 = lshr i32 %3, 8
  %7 = zext nneg i32 %5 to i64
  %8 = getelementptr inbounds nuw [257 x ptr], ptr @_ZN32pxrInternal_v0_24__pxrReserved__8Sdf_PoolINS_15Sdf_PathPrimTagELj24ELj8ELj16384EE13_regionStartsE, i64 0, i64 %7
  %9 = load ptr, ptr %8, align 8
  %10 = mul nuw nsw i32 %6, 24
  %11 = zext nneg i32 %10 to i64
  %12 = getelementptr inbounds nuw i8, ptr %9, i64 %11
  %13 = getelementptr inbounds nuw i8, ptr %12, i64 8
  %14 = atomicrmw sub ptr %13, i32 1 seq_cst, align 4
  %15 = and i32 %14, 2147483647
  %16 = icmp eq i32 %15, 1
  br i1 %16, label %17, label %_ZN32pxrInternal_v0_24__pxrReserved__22UsdPrimSubtreeIteratorD2Ev.exit.i

17:                                               ; preds = %4
  invoke void @_ZNK32pxrInternal_v0_24__pxrReserved__12Sdf_PathNode8_DestroyEv(ptr noundef nonnull align 8 dereferenceable(16) %12)
          to label %_ZN32pxrInternal_v0_24__pxrReserved__22UsdPrimSubtreeIteratorD2Ev.exit.i unwind label %18

18:                                               ; preds = %17
  %19 = landingpad { ptr, i32 }
          catch ptr null
  %20 = extractvalue { ptr, i32 } %19, 0
  tail call void @__clang_call_terminate(ptr %20) #23
  unreachable

_ZN32pxrInternal_v0_24__pxrReserved__22UsdPrimSubtreeIteratorD2Ev.exit.i: ; preds = %17, %4, %1
  %21 = getelementptr inbounds nuw i8, ptr %0, i64 72
  %22 = load i32, ptr %21, align 8
  %.not.i.i.i1.i = icmp eq i32 %22, 0
  br i1 %.not.i.i.i1.i, label %_ZN3tbb6detail2d223for_each_root_task_baseIN32pxrInternal_v0_24__pxrReserved__22UsdPrimSubtreeIteratorEZZNS3_12_GLOBAL__N_137_TargetingPropertyDependencyCollector4_RunERKNS3_8TfRefPtrINS3_8UsdStageEEEENKUlvE_clEvEUlRKNS3_7UsdPrimEE_SD_ED2Ev.exit, label %23

23:                                               ; preds = %_ZN32pxrInternal_v0_24__pxrReserved__22UsdPrimSubtreeIteratorD2Ev.exit.i
  %24 = and i32 %22, 255
  %25 = lshr i32 %22, 8
  %26 = zext nneg i32 %24 to i64
  %27 = getelementptr inbounds nuw [257 x ptr], ptr @_ZN32pxrInternal_v0_24__pxrReserved__8Sdf_PoolINS_15Sdf_PathPrimTagELj24ELj8ELj16384EE13_regionStartsE, i64 0, i64 %26
  %28 = load ptr, ptr %27, align 8
  %29 = mul nuw nsw i32 %25, 24
  %30 = zext nneg i32 %29 to i64
  %31 = getelementptr inbounds nuw i8, ptr %28, i64 %30
  %32 = getelementptr inbounds nuw i8, ptr %31, i64 8
  %33 = atomicrmw sub ptr %32, i32 1 seq_cst, align 4
  %34 = and i32 %33, 2147483647
  %35 = icmp eq i32 %34, 1
  br i1 %35, label %36, label %_ZN3tbb6detail2d223for_each_root_task_baseIN32pxrInternal_v0_24__pxrReserved__22UsdPrimSubtreeIteratorEZZNS3_12_GLOBAL__N_137_TargetingPropertyDependencyCollector4_RunERKNS3_8TfRefPtrINS3_8UsdStageEEEENKUlvE_clEvEUlRKNS3_7UsdPrimEE_SD_ED2Ev.exit

36:                                               ; preds = %23
  invoke void @_ZNK32pxrInternal_v0_24__pxrReserved__12Sdf_PathNode8_DestroyEv(ptr noundef nonnull align 8 dereferenceable(16) %31)
          to label %_ZN3tbb6detail2d223for_each_root_task_baseIN32pxrInternal_v0_24__pxrReserved__22UsdPrimSubtreeIteratorEZZNS3_12_GLOBAL__N_137_TargetingPropertyDependencyCollector4_RunERKNS3_8TfRefPtrINS3_8UsdStageEEEENKUlvE_clEvEUlRKNS3_7UsdPrimEE_SD_ED2Ev.exit unwind label %37

37:                                               ; preds = %36
  %38 = landingpad { ptr, i32 }
          catch ptr null
  %39 = extractvalue { ptr, i32 } %38, 0
  tail call void @__clang_call_terminate(ptr %39) #23
  unreachable

_ZN3tbb6detail2d223for_each_root_task_baseIN32pxrInternal_v0_24__pxrReserved__22UsdPrimSubtreeIteratorEZZNS3_12_GLOBAL__N_137_TargetingPropertyDependencyCollector4_RunERKNS3_8TfRefPtrINS3_8UsdStageEEEENKUlvE_clEvEUlRKNS3_7UsdPrimEE_SD_ED2Ev.exit: ; preds = %_ZN32pxrInternal_v0_24__pxrReserved__22UsdPrimSubtreeIteratorD2Ev.exit.i, %23, %36
  ret void
}